target datalayout = "e-m:e-p270:32:32-p271:32:32-p272:64:64-i64:64-i128:128-f80:128-n8:16:32:64-S128"
target triple = "x86_64-pc-linux-gnu"

; Function Attrs: nounwind uwtable
define internal void @sum2_float(ptr noundef %0, ptr noundef %1, ptr noundef %2, ptr noundef %3, i32 noundef %4, i32 noundef %5, i32 noundef %6) #0 {
  %8 = alloca ptr, align 8
  %9 = alloca ptr, align 8
  %10 = alloca ptr, align 8
  %11 = alloca ptr, align 8
  %12 = alloca i32, align 4
  %13 = alloca i32, align 4
  %14 = alloca i32, align 4
  %15 = alloca i32, align 4
  %16 = alloca float, align 4
  %17 = alloca float, align 4
  store ptr %0, ptr %8, align 8, !tbaa !93
  store ptr %1, ptr %9, align 8, !tbaa !93
  store ptr %2, ptr %10, align 8, !tbaa !93
  store ptr %3, ptr %11, align 8, !tbaa !93
  store i32 %4, ptr %12, align 4, !tbaa !11
  store i32 %5, ptr %13, align 4, !tbaa !11
  store i32 %6, ptr %14, align 4, !tbaa !11
  call void @llvm.lifetime.start.p0(i64 4, ptr %15) #9
  call void @llvm.lifetime.start.p0(i64 4, ptr %16) #9
  %18 = load ptr, ptr %11, align 8, !tbaa !93
  %19 = load i32, ptr %12, align 4, !tbaa !11
  %20 = sext i32 %19 to i64
  %21 = getelementptr inbounds float, ptr %18, i64 %20
  %22 = load float, ptr %21, align 4, !tbaa !30
  store float %22, ptr %16, align 4, !tbaa !30
  call void @llvm.lifetime.start.p0(i64 4, ptr %17) #9
  %23 = load ptr, ptr %11, align 8, !tbaa !93
  %24 = load i32, ptr %13, align 4, !tbaa !11
  %25 = sext i32 %24 to i64
  %26 = getelementptr inbounds float, ptr %23, i64 %25
  %27 = load float, ptr %26, align 4, !tbaa !30
  store float %27, ptr %17, align 4, !tbaa !30
  store i32 0, ptr %15, align 4, !tbaa !11
  br label %28

28:                                               ; preds = %51, %7
  %29 = load i32, ptr %15, align 4, !tbaa !11
  %30 = load i32, ptr %14, align 4, !tbaa !11
  %31 = icmp slt i32 %29, %30
  br i1 %31, label %32, label %54

32:                                               ; preds = %28
  %33 = load float, ptr %16, align 4, !tbaa !30
  %34 = load ptr, ptr %9, align 8, !tbaa !93
  %35 = load i32, ptr %15, align 4, !tbaa !11
  %36 = sext i32 %35 to i64
  %37 = getelementptr inbounds float, ptr %34, i64 %36
  %38 = load float, ptr %37, align 4, !tbaa !30
  %39 = load float, ptr %17, align 4, !tbaa !30
  %40 = load ptr, ptr %10, align 8, !tbaa !93
  %41 = load i32, ptr %15, align 4, !tbaa !11
  %42 = sext i32 %41 to i64
  %43 = getelementptr inbounds float, ptr %40, i64 %42
  %44 = load float, ptr %43, align 4, !tbaa !30
  %45 = fmul nsz float %39, %44
  %46 = call nsz float @llvm.fmuladd.f32(float %33, float %38, float %45)
  %47 = load ptr, ptr %8, align 8, !tbaa !93
  %48 = load i32, ptr %15, align 4, !tbaa !11
  %49 = sext i32 %48 to i64
  %50 = getelementptr inbounds float, ptr %47, i64 %49
  store float %46, ptr %50, align 4, !tbaa !30
  br label %51

51:                                               ; preds = %32
  %52 = load i32, ptr %15, align 4, !tbaa !11
  %53 = add nsw i32 %52, 1
  store i32 %53, ptr %15, align 4, !tbaa !11
  br label %28, !llvm.loop !96

54:                                               ; preds = %28
  call void @llvm.lifetime.end.p0(i64 4, ptr %17) #9
  call void @llvm.lifetime.end.p0(i64 4, ptr %16) #9
  call void @llvm.lifetime.end.p0(i64 4, ptr %15) #9
  ret void
}