; Function Attrs: nofree norecurse nosync nounwind memory(argmem: readwrite) uwtable
define internal void @sum2_float(ptr noundef writeonly captures(none) %0, ptr noundef readonly captures(none) %1, ptr noundef readonly captures(none) %2, ptr noundef readonly captures(none) %3, i32 noundef %4, i32 noundef %5, i32 noundef %6) #0 {
  %8 = sext i32 %4 to i64
  %9 = getelementptr inbounds float, ptr %3, i64 %8
  %10 = load float, ptr %9, align 4, !tbaa !25
  %11 = sext i32 %5 to i64
  %12 = getelementptr inbounds float, ptr %3, i64 %11
  %13 = load float, ptr %12, align 4, !tbaa !25
  %14 = icmp sgt i32 %6, 0
  br i1 %14, label %.lr.ph.preheader, label %._crit_edge

.lr.ph.preheader:                                 ; preds = %7
  %wide.trip.count = zext nneg i32 %6 to i64
  br label %.lr.ph

.lr.ph:                                           ; preds = %.lr.ph.preheader, %.lr.ph
  %indvars.iv = phi i64 [ 0, %.lr.ph.preheader ], [ %indvars.iv.next, %.lr.ph ]
  %15 = getelementptr inbounds nuw float, ptr %1, i64 %indvars.iv
  %16 = load float, ptr %15, align 4, !tbaa !25
  %17 = getelementptr inbounds nuw float, ptr %2, i64 %indvars.iv
  %18 = load float, ptr %17, align 4, !tbaa !25
  %19 = fmul nsz float %13, %18
  %20 = tail call nsz float @llvm.fmuladd.f32(float %10, float %16, float %19)
  %21 = getelementptr inbounds nuw float, ptr %0, i64 %indvars.iv
  store float %20, ptr %21, align 4, !tbaa !25
  %indvars.iv.next = add nuw nsw i64 %indvars.iv, 1
  %exitcond.not = icmp eq i64 %indvars.iv.next, %wide.trip.count
  br i1 %exitcond.not, label %._crit_edge, label %.lr.ph, !llvm.loop !83

._crit_edge:                                      ; preds = %.lr.ph, %7
  ret void
}